; Function Attrs: null_pointer_is_valid sspstrong uwtable
define internal void @dissect_zcl_rssi_location_attr_data(ptr noundef %0, ptr noundef %1, ptr noundef %2, i16 noundef zeroext %3, i32 noundef %4, i1 noundef zeroext %5) #0 {
  switch i16 %3, label %20 [
    i16 0, label %7
    i16 1, label %14
  ]

7:                                                ; preds = %6
  %8 = load i32, ptr %2, align 4
  %9 = load i32, ptr @hf_zbee_zcl_rssi_location_location_type, align 4
  %10 = load i32, ptr @ett_zbee_zcl_rssi_location_location_type, align 4
  %11 = tail call ptr @proto_tree_add_bitmask(ptr noundef %0, ptr noundef %1, i32 noundef %8, i32 noundef %9, i32 noundef %10, ptr noundef nonnull @dissect_zcl_rssi_location_attr_data.location_type, i32 noundef -2147483648)
  %12 = load i32, ptr %2, align 4
  %13 = add i32 %12, 1
  store i32 %13, ptr %2, align 4
  br label %21

14:                                               ; preds = %6
  %15 = load i32, ptr @hf_zbee_zcl_rssi_location_attr_id_location_method, align 4
  %16 = load i32, ptr %2, align 4
  %17 = tail call ptr @proto_tree_add_item(ptr noundef %0, i32 noundef %15, ptr noundef %1, i32 noundef %16, i32 noundef 1, i32 noundef -2147483648)
  %18 = load i32, ptr %2, align 4
  %19 = add i32 %18, 1
  store i32 %19, ptr %2, align 4
  br label %21

20:                                               ; preds = %6
  tail call void @dissect_zcl_attr_data(ptr noundef %1, ptr noundef %0, ptr noundef %2, i32 noundef %4, i1 noundef zeroext %5)
  br label %21

21:                                               ; preds = %20, %14, %7
  ret void
}